target datalayout = "e-m:e-p270:32:32-p271:32:32-p272:64:64-i64:64-i128:128-f80:128-n8:16:32:64-S128"
target triple = "x86_64-pc-linux-gnu"

%struct.slurm_cred_t = type { i32, %union.pthread_rwlock_t, ptr, i32, i16, ptr, i64, ptr, i8 }
%union.pthread_rwlock_t = type { %struct.__pthread_rwlock_arch_t }
%struct.__pthread_rwlock_arch_t = type { i32, i32, i32, i32, i32, i32, i32, i32, i8, [7 x i8], i64, i32 }
%struct.buf_t = type { i32, ptr, i32, i32, i8, i8 }

; Function Attrs: nounwind uwtable
define dso_local ptr @cred_unpack_with_signature(ptr noundef %0, i16 noundef zeroext %1) #0 {
  %3 = alloca ptr, align 8
  %4 = alloca ptr, align 8
  %5 = alloca i16, align 2
  %6 = alloca ptr, align 8
  %7 = alloca i32, align 4
  %8 = alloca i32, align 4
  %9 = alloca i32, align 4
  %10 = alloca i32, align 4
  store ptr %0, ptr %4, align 8
  store i16 %1, ptr %5, align 2
  call void @llvm.lifetime.start.p0(i64 8, ptr %6) #6
  store ptr null, ptr %6, align 8
  call void @llvm.lifetime.start.p0(i64 4, ptr %7) #6
  call void @llvm.lifetime.start.p0(i64 4, ptr %8) #6
  %11 = load ptr, ptr %4, align 8
  %12 = getelementptr inbounds nuw %struct.buf_t, ptr %11, i32 0, i32 3
  %13 = load i32, ptr %12, align 4
  store i32 %13, ptr %7, align 4
  %14 = load ptr, ptr %4, align 8
  %15 = load i16, ptr %5, align 2
  %16 = call i32 @cred_unpack(ptr noundef %6, ptr noundef %14, i16 noundef zeroext %15)
  %17 = icmp ne i32 %16, 0
  br i1 %17, label %18, label %19

18:                                               ; preds = %2
  br label %74

19:                                               ; preds = %2
  %20 = load ptr, ptr %4, align 8
  %21 = getelementptr inbounds nuw %struct.buf_t, ptr %20, i32 0, i32 3
  %22 = load i32, ptr %21, align 4
  %23 = load i32, ptr %7, align 4
  %24 = sub i32 %22, %23
  %25 = load ptr, ptr %6, align 8
  %26 = getelementptr inbounds nuw %struct.slurm_cred_t, ptr %25, i32 0, i32 3
  store i32 %24, ptr %26, align 8
  br label %27

27:                                               ; preds = %19
  call void @llvm.lifetime.start.p0(i64 4, ptr %9) #6
  %28 = load ptr, ptr %6, align 8
  %29 = getelementptr inbounds nuw %struct.slurm_cred_t, ptr %28, i32 0, i32 7
  %30 = load ptr, ptr %4, align 8
  %31 = call i32 @unpackstr_xmalloc_chooser(ptr noundef %29, ptr noundef %9, ptr noundef %30)
  %32 = icmp ne i32 %31, 0
  br i1 %32, label %33, label %34

33:                                               ; preds = %27
  store i32 2, ptr %10, align 4
  br label %35

34:                                               ; preds = %27
  store i32 0, ptr %10, align 4
  br label %35

35:                                               ; preds = %33, %34
  call void @llvm.lifetime.end.p0(i64 4, ptr %9) #6
  %36 = load i32, ptr %10, align 4
  switch i32 %36, label %76 [
    i32 0, label %37
    i32 2, label %74
  ]

37:                                               ; preds = %35
  br label %38

38:                                               ; preds = %37
  br label %39

39:                                               ; preds = %38
  %40 = call zeroext i1 @running_in_slurmstepd()
  br i1 %40, label %72, label %41

41:                                               ; preds = %39
  %42 = load ptr, ptr %4, align 8
  %43 = getelementptr inbounds nuw %struct.buf_t, ptr %42, i32 0, i32 3
  %44 = load i32, ptr %43, align 4
  %45 = load i32, ptr %7, align 4
  %46 = sub i32 %44, %45
  store i32 %46, ptr %8, align 4
  %47 = load i32, ptr %8, align 4
  %48 = call ptr @init_buf(i32 noundef %47)
  %49 = load ptr, ptr %6, align 8
  %50 = getelementptr inbounds nuw %struct.slurm_cred_t, ptr %49, i32 0, i32 2
  store ptr %48, ptr %50, align 8
  %51 = load i16, ptr %5, align 2
  %52 = load ptr, ptr %6, align 8
  %53 = getelementptr inbounds nuw %struct.slurm_cred_t, ptr %52, i32 0, i32 4
  store i16 %51, ptr %53, align 4
  %54 = load ptr, ptr %6, align 8
  %55 = getelementptr inbounds nuw %struct.slurm_cred_t, ptr %54, i32 0, i32 2
  %56 = load ptr, ptr %55, align 8
  %57 = getelementptr inbounds nuw %struct.buf_t, ptr %56, i32 0, i32 1
  %58 = load ptr, ptr %57, align 8
  %59 = load ptr, ptr %4, align 8
  %60 = getelementptr inbounds nuw %struct.buf_t, ptr %59, i32 0, i32 1
  %61 = load ptr, ptr %60, align 8
  %62 = load i32, ptr %7, align 4
  %63 = zext i32 %62 to i64
  %64 = getelementptr inbounds nuw i8, ptr %61, i64 %63
  %65 = load i32, ptr %8, align 4
  %66 = zext i32 %65 to i64
  call void @llvm.memcpy.p0.p0.i64(ptr align 1 %58, ptr align 1 %64, i64 %66, i1 false)
  %67 = load i32, ptr %8, align 4
  %68 = load ptr, ptr %6, align 8
  %69 = getelementptr inbounds nuw %struct.slurm_cred_t, ptr %68, i32 0, i32 2
  %70 = load ptr, ptr %69, align 8
  %71 = getelementptr inbounds nuw %struct.buf_t, ptr %70, i32 0, i32 3
  store i32 %67, ptr %71, align 4
  br label %72

72:                                               ; preds = %41, %39
  %73 = load ptr, ptr %6, align 8
  store ptr %73, ptr %3, align 8
  store i32 1, ptr %10, align 4
  br label %76

74:                                               ; preds = %35, %18
  %75 = load ptr, ptr %6, align 8
  call void @slurm_cred_destroy(ptr noundef %75)
  store ptr null, ptr %3, align 8
  store i32 1, ptr %10, align 4
  br label %76

76:                                               ; preds = %74, %72, %35
  call void @llvm.lifetime.end.p0(i64 4, ptr %8) #6
  call void @llvm.lifetime.end.p0(i64 4, ptr %7) #6
  call void @llvm.lifetime.end.p0(i64 8, ptr %6) #6
  %77 = load ptr, ptr %3, align 8
  ret ptr %77
}