; Function Attrs: nounwind uwtable
define dso_local ptr @cred_unpack_with_signature(ptr noundef %0, i16 noundef zeroext %1) local_unnamed_addr #0 {
  %3 = alloca ptr, align 8
  %4 = alloca i32, align 4
  call void @llvm.lifetime.start.p0(i64 8, ptr nonnull %3) #6
  store ptr null, ptr %3, align 8
  %5 = getelementptr inbounds nuw i8, ptr %0, i64 20
  %6 = load i32, ptr %5, align 4
  %7 = call i32 @cred_unpack(ptr noundef nonnull %3, ptr noundef %0, i16 noundef zeroext %1)
  %.not = icmp eq i32 %7, 0
  %.pre = load ptr, ptr %3, align 8
  br i1 %.not, label %8, label %31

8:                                                ; preds = %2
  %9 = load i32, ptr %5, align 4
  %10 = sub i32 %9, %6
  %11 = getelementptr inbounds nuw i8, ptr %.pre, i64 72
  store i32 %10, ptr %11, align 8
  call void @llvm.lifetime.start.p0(i64 4, ptr nonnull %4) #6
  %12 = getelementptr inbounds nuw i8, ptr %.pre, i64 96
  %13 = call i32 @unpackstr_xmalloc_chooser(ptr noundef nonnull %12, ptr noundef nonnull %4, ptr noundef nonnull %0) #6
  %.not16 = icmp eq i32 %13, 0
  call void @llvm.lifetime.end.p0(i64 4, ptr nonnull %4) #6
  br i1 %.not16, label %14, label %31

14:                                               ; preds = %8
  %15 = call zeroext i1 @running_in_slurmstepd() #6
  br i1 %15, label %32, label %16

16:                                               ; preds = %14
  %17 = load i32, ptr %5, align 4
  %18 = sub i32 %17, %6
  %19 = call ptr @init_buf(i32 noundef %18) #6
  %20 = getelementptr inbounds nuw i8, ptr %.pre, i64 64
  store ptr %19, ptr %20, align 8
  %21 = getelementptr inbounds nuw i8, ptr %.pre, i64 76
  store i16 %1, ptr %21, align 4
  %22 = getelementptr inbounds nuw i8, ptr %19, i64 8
  %23 = load ptr, ptr %22, align 8
  %24 = getelementptr inbounds nuw i8, ptr %0, i64 8
  %25 = load ptr, ptr %24, align 8
  %26 = zext i32 %6 to i64
  %27 = getelementptr inbounds nuw i8, ptr %25, i64 %26
  %28 = zext i32 %18 to i64
  call void @llvm.memcpy.p0.p0.i64(ptr align 1 %23, ptr align 1 %27, i64 %28, i1 false)
  %29 = load ptr, ptr %20, align 8
  %30 = getelementptr inbounds nuw i8, ptr %29, i64 20
  store i32 %18, ptr %30, align 4
  br label %32

31:                                               ; preds = %8, %2
  call void @slurm_cred_destroy(ptr noundef %.pre) #6
  br label %32

32:                                               ; preds = %14, %16, %31
  %.015 = phi ptr [ null, %31 ], [ %.pre, %16 ], [ %.pre, %14 ]
  call void @llvm.lifetime.end.p0(i64 8, ptr nonnull %3) #6
  ret ptr %.015
}